; Function Attrs: nounwind uwtable
define zeroext range(i8 0, 2) i8 @l___private_Lake_Util_Version_0__Lake_decEqSemVerCore____x40_Lake_Util_Version___hyg_126_(ptr noundef readonly captures(none) %0, ptr noundef readonly captures(none) %1) local_unnamed_addr #0 {
  %3 = getelementptr inbounds nuw i8, ptr %0, i64 8
  %4 = load ptr, ptr %3, align 8, !tbaa !4
  %5 = getelementptr inbounds nuw i8, ptr %0, i64 16
  %6 = load ptr, ptr %5, align 8, !tbaa !4
  %7 = getelementptr inbounds nuw i8, ptr %0, i64 24
  %8 = load ptr, ptr %7, align 8, !tbaa !4
  %9 = getelementptr inbounds nuw i8, ptr %1, i64 8
  %10 = load ptr, ptr %9, align 8, !tbaa !4
  %11 = getelementptr inbounds nuw i8, ptr %1, i64 16
  %12 = load ptr, ptr %11, align 8, !tbaa !4
  %13 = getelementptr inbounds nuw i8, ptr %1, i64 24
  %14 = load ptr, ptr %13, align 8, !tbaa !4
  %15 = ptrtoint ptr %4 to i64
  %16 = and i64 %15, 1
  %17 = icmp ne i64 %16, 0
  %18 = ptrtoint ptr %10 to i64
  %19 = and i64 %18, 1
  %20 = icmp ne i64 %19, 0
  %or.cond = select i1 %17, i1 %20, i1 false
  br i1 %or.cond, label %21, label %lean_nat_eq.exit, !prof !14

21:                                               ; preds = %2
  %22 = icmp eq ptr %4, %10
  br i1 %22, label %24, label %45

lean_nat_eq.exit:                                 ; preds = %2
  %23 = tail call zeroext i1 @lean_nat_big_eq(ptr noundef %4, ptr noundef %10) #5
  br i1 %23, label %24, label %45

24:                                               ; preds = %21, %lean_nat_eq.exit
  %25 = ptrtoint ptr %6 to i64
  %26 = and i64 %25, 1
  %27 = icmp ne i64 %26, 0
  %28 = ptrtoint ptr %12 to i64
  %29 = and i64 %28, 1
  %30 = icmp ne i64 %29, 0
  %or.cond27 = select i1 %27, i1 %30, i1 false
  br i1 %or.cond27, label %31, label %lean_nat_eq.exit19, !prof !14

31:                                               ; preds = %24
  %32 = icmp eq ptr %6, %12
  br i1 %32, label %34, label %45

lean_nat_eq.exit19:                               ; preds = %24
  %33 = tail call zeroext i1 @lean_nat_big_eq(ptr noundef %6, ptr noundef %12) #5
  br i1 %33, label %34, label %45

34:                                               ; preds = %31, %lean_nat_eq.exit19
  %35 = ptrtoint ptr %8 to i64
  %36 = and i64 %35, 1
  %37 = icmp ne i64 %36, 0
  %38 = ptrtoint ptr %14 to i64
  %39 = and i64 %38, 1
  %40 = icmp ne i64 %39, 0
  %or.cond30 = select i1 %37, i1 %40, i1 false
  br i1 %or.cond30, label %41, label %.critedge.i20, !prof !14

41:                                               ; preds = %34
  %42 = icmp eq ptr %8, %14
  br label %lean_nat_eq.exit22

.critedge.i20:                                    ; preds = %34
  %43 = tail call zeroext i1 @lean_nat_big_eq(ptr noundef %8, ptr noundef %14) #5
  br label %lean_nat_eq.exit22

lean_nat_eq.exit22:                               ; preds = %41, %.critedge.i20
  %.0.i21 = phi i1 [ %42, %41 ], [ %43, %.critedge.i20 ]
  %44 = zext i1 %.0.i21 to i8
  br label %45

45:                                               ; preds = %31, %21, %lean_nat_eq.exit22, %lean_nat_eq.exit19, %lean_nat_eq.exit
  %.0 = phi i8 [ 0, %lean_nat_eq.exit ], [ %44, %lean_nat_eq.exit22 ], [ 0, %lean_nat_eq.exit19 ], [ 0, %21 ], [ 0, %31 ]
  ret i8 %.0
}